target datalayout = "e-m:e-p270:32:32-p271:32:32-p272:64:64-i64:64-i128:128-f80:128-n8:16:32:64-S128"
target triple = "x86_64-pc-linux-gnu"

@CodeEntryAlignment = external global i64, align 8

; Function Attrs: mustprogress nounwind uwtable
define linkonce_odr hidden noundef i32 @_Z4MAX2IiET_S0_S0_(i32 noundef %0, i32 noundef %1) #1 comdat {
  %3 = alloca i32, align 4
  %4 = alloca i32, align 4
  store i32 %0, ptr %3, align 4
  store i32 %1, ptr %4, align 4
  %5 = load i32, ptr %3, align 4
  %6 = load i32, ptr %4, align 4
  %7 = icmp sgt i32 %5, %6
  br i1 %7, label %8, label %10

8:                                                ; preds = %2
  %9 = load i32, ptr %3, align 4
  br label %12

10:                                               ; preds = %2
  %11 = load i32, ptr %4, align 4
  br label %12

12:                                               ; preds = %10, %8
  %13 = phi i32 [ %9, %8 ], [ %11, %10 ]
  ret i32 %13
}

; Function Attrs: mustprogress nounwind uwtable
define linkonce_odr hidden noundef i32 @_ZN11CodeSection8end_slopEv() #1 comdat align 2 {
  %1 = load i64, ptr @CodeEntryAlignment, align 8
  %2 = trunc i64 %1 to i32
  %3 = call noundef i32 @_Z4MAX2IiET_S0_S0_(i32 noundef 8, i32 noundef %2)
  ret i32 %3
}

; Function Attrs: mustprogress nounwind uwtable
define hidden noundef i32 @_ZN10C2Compiler24initial_code_buffer_sizeEi(i32 noundef %0) #1 align 2 {
  %2 = alloca i32, align 4
  %3 = alloca i32, align 4
  %4 = alloca i32, align 4
  store i32 %0, ptr %2, align 4
  store i32 256, ptr %3, align 4
  %5 = call noundef i32 @_ZN11CodeSection8end_slopEv()
  %6 = mul nsw i32 2, %5
  store i32 %6, ptr %4, align 4
  %7 = load i32, ptr %2, align 4
  %8 = add nsw i32 2176, %7
  %9 = load i32, ptr %4, align 4
  %10 = add nsw i32 %8, %9
  %11 = load i32, ptr %3, align 4
  %12 = add nsw i32 %10, %11
  ret i32 %12
}