; Function Attrs: mustprogress nofree norecurse nosync nounwind willreturn memory(read, argmem: none, inaccessiblemem: none) uwtable
define hidden noundef range(i32 -2147483392, -2147483648) i32 @_ZN10C2Compiler24initial_code_buffer_sizeEi(i32 noundef %0) local_unnamed_addr #4 align 2 {
  %2 = load i64, ptr @CodeEntryAlignment, align 8
  %3 = trunc i64 %2 to i32
  %4 = tail call noundef i32 @llvm.smax.i32(i32 %3, i32 8)
  %5 = shl nuw nsw i32 %4, 1
  %6 = add i32 %0, 2432
  %7 = add i32 %6, %5
  ret i32 %7
}